target datalayout = "e-m:e-p270:32:32-p271:32:32-p272:64:64-i64:64-i128:128-f80:128-n8:16:32:64-S128"
target triple = "x86_64-pc-linux-gnu"

%struct.RString = type { %struct.RBasic, i64, %union.anon.12 }
%struct.RBasic = type { i64, i64 }
%union.anon.12 = type { %struct.anon.13 }
%struct.anon.13 = type { ptr, %union.anon.14 }
%union.anon.14 = type { i64 }
%struct.RArray = type { %struct.RBasic, %union.anon.16 }
%union.anon.16 = type { %struct.anon.17 }
%struct.anon.17 = type { i64, %union.anon.18, ptr }
%union.anon.18 = type { i64 }

@.str.4 = private unnamed_addr constant [4 x i8] c".so\00", align 1
@.str.17 = private unnamed_addr constant [4 x i8] c".rb\00", align 1

; Function Attrs: inlinehint nounwind sspstrong willreturn memory(read) uwtable
define internal i64 @RB_FL_TEST_RAW(i64 noundef %0, i64 noundef %1) #12 {
  %3 = alloca i64, align 8
  %4 = alloca i64, align 8
  store i64 %0, ptr %3, align 8, !tbaa !12
  store i64 %1, ptr %4, align 8, !tbaa !12
  %5 = load i64, ptr %3, align 8, !tbaa !12
  %6 = inttoptr i64 %5 to ptr
  %7 = getelementptr inbounds nuw %struct.RBasic, ptr %6, i32 0, i32 0
  %8 = load i64, ptr %7, align 8, !tbaa !139
  %9 = load i64, ptr %4, align 8, !tbaa !12
  %10 = and i64 %8, %9
  ret i64 %10
}

; Function Attrs: inlinehint nounwind sspstrong willreturn memory(read) uwtable
define internal ptr @rb_array_const_ptr(i64 noundef %0) #12 {
  %2 = alloca ptr, align 8
  %3 = alloca i64, align 8
  store i64 %0, ptr %3, align 8, !tbaa !12
  %4 = load i64, ptr %3, align 8, !tbaa !12
  %5 = call zeroext i1 @RB_FL_ANY_RAW(i64 noundef %4, i64 noundef 8192) #29
  br i1 %5, label %6, label %11

6:                                                ; preds = %1
  %7 = load i64, ptr %3, align 8, !tbaa !12
  %8 = inttoptr i64 %7 to ptr
  %9 = getelementptr inbounds nuw %struct.RArray, ptr %8, i32 0, i32 1
  %10 = getelementptr inbounds [1 x i64], ptr %9, i64 0, i64 0
  store ptr %10, ptr %2, align 8
  br label %17

11:                                               ; preds = %1
  %12 = load i64, ptr %3, align 8, !tbaa !12
  %13 = inttoptr i64 %12 to ptr
  %14 = getelementptr inbounds nuw %struct.RArray, ptr %13, i32 0, i32 1
  %15 = getelementptr inbounds nuw %struct.anon.17, ptr %14, i32 0, i32 2
  %16 = load ptr, ptr %15, align 8, !tbaa !47
  store ptr %16, ptr %2, align 8
  br label %17

17:                                               ; preds = %11, %6
  %18 = load ptr, ptr %2, align 8
  ret ptr %18
}

; Function Attrs: inlinehint nounwind sspstrong willreturn memory(read) uwtable
define internal i64 @RARRAY_EMBED_LEN(i64 noundef %0) #12 {
  %2 = alloca i64, align 8
  %3 = alloca i64, align 8
  store i64 %0, ptr %2, align 8, !tbaa !12
  call void @llvm.lifetime.start.p0(i64 8, ptr %3) #8
  %4 = load i64, ptr %2, align 8, !tbaa !12
  %5 = inttoptr i64 %4 to ptr
  %6 = getelementptr inbounds nuw %struct.RBasic, ptr %5, i32 0, i32 0
  %7 = load i64, ptr %6, align 8, !tbaa !139
  store i64 %7, ptr %3, align 8, !tbaa !12
  %8 = load i64, ptr %3, align 8, !tbaa !12
  %9 = and i64 %8, 4161536
  store i64 %9, ptr %3, align 8, !tbaa !12
  %10 = load i64, ptr %3, align 8, !tbaa !12
  %11 = lshr i64 %10, 15
  store i64 %11, ptr %3, align 8, !tbaa !12
  %12 = load i64, ptr %3, align 8, !tbaa !12
  call void @llvm.lifetime.end.p0(i64 8, ptr %3) #8
  ret i64 %12
}

; Function Attrs: inlinehint nounwind sspstrong willreturn memory(read) uwtable
define internal zeroext i1 @RB_FL_ANY_RAW(i64 noundef %0, i64 noundef %1) #12 {
  %3 = alloca i64, align 8
  %4 = alloca i64, align 8
  store i64 %0, ptr %3, align 8, !tbaa !12
  store i64 %1, ptr %4, align 8, !tbaa !12
  %5 = load i64, ptr %3, align 8, !tbaa !12
  %6 = load i64, ptr %4, align 8, !tbaa !12
  %7 = call i64 @RB_FL_TEST_RAW(i64 noundef %5, i64 noundef %6) #29
  %8 = icmp ne i64 %7, 0
  ret i1 %8
}

; Function Attrs: inlinehint nounwind sspstrong willreturn memory(read) uwtable
define internal i64 @RSTRING_LEN(i64 noundef %0) #12 {
  %2 = alloca i64, align 8
  store i64 %0, ptr %2, align 8, !tbaa !12
  %3 = load i64, ptr %2, align 8, !tbaa !12
  %4 = inttoptr i64 %3 to ptr
  %5 = getelementptr inbounds nuw %struct.RString, ptr %4, i32 0, i32 1
  %6 = load i64, ptr %5, align 8, !tbaa !142
  ret i64 %6
}

; Function Attrs: inlinehint nounwind sspstrong willreturn memory(read) uwtable
define internal i64 @RARRAY_AREF(i64 noundef %0, i64 noundef %1) #12 {
  %3 = alloca i64, align 8
  %4 = alloca i64, align 8
  %5 = alloca i64, align 8
  store i64 %0, ptr %3, align 8, !tbaa !12
  store i64 %1, ptr %4, align 8, !tbaa !12
  call void @llvm.lifetime.start.p0(i64 8, ptr %5) #8
  %6 = load i64, ptr %3, align 8, !tbaa !12
  %7 = call ptr @rb_array_const_ptr(i64 noundef %6) #29
  %8 = load i64, ptr %4, align 8, !tbaa !12
  %9 = getelementptr i64, ptr %7, i64 %8
  %10 = load i64, ptr %9, align 8, !tbaa !12
  store i64 %10, ptr %5, align 8, !tbaa !12
  %11 = load i64, ptr %5, align 8, !tbaa !12
  call void @llvm.lifetime.end.p0(i64 8, ptr %5) #8
  ret i64 %11
}

; Function Attrs: inlinehint nounwind sspstrong willreturn memory(read) uwtable
define internal i64 @rb_array_len(i64 noundef %0) #12 {
  %2 = alloca i64, align 8
  %3 = alloca i64, align 8
  store i64 %0, ptr %3, align 8, !tbaa !12
  %4 = load i64, ptr %3, align 8, !tbaa !12
  %5 = call zeroext i1 @RB_FL_ANY_RAW(i64 noundef %4, i64 noundef 8192) #29
  br i1 %5, label %6, label %9

6:                                                ; preds = %1
  %7 = load i64, ptr %3, align 8, !tbaa !12
  %8 = call i64 @RARRAY_EMBED_LEN(i64 noundef %7) #29
  store i64 %8, ptr %2, align 8
  br label %15

9:                                                ; preds = %1
  %10 = load i64, ptr %3, align 8, !tbaa !12
  %11 = inttoptr i64 %10 to ptr
  %12 = getelementptr inbounds nuw %struct.RArray, ptr %11, i32 0, i32 1
  %13 = getelementptr inbounds nuw %struct.anon.17, ptr %12, i32 0, i32 0
  %14 = load i64, ptr %13, align 8, !tbaa !47
  store i64 %14, ptr %2, align 8
  br label %15

15:                                               ; preds = %9, %6
  %16 = load i64, ptr %2, align 8
  ret i64 %16
}

; Function Attrs: nounwind sspstrong uwtable
define internal i64 @loaded_feature_path(ptr noundef %0, i64 noundef %1, ptr noundef %2, i64 noundef %3, i32 noundef %4, i64 noundef %5) #0 {
  %7 = alloca i64, align 8
  %8 = alloca ptr, align 8
  %9 = alloca i64, align 8
  %10 = alloca ptr, align 8
  %11 = alloca i64, align 8
  %12 = alloca i32, align 4
  %13 = alloca i64, align 8
  %14 = alloca i64, align 8
  %15 = alloca i64, align 8
  %16 = alloca ptr, align 8
  %17 = alloca i32, align 4
  %18 = alloca i64, align 8
  %19 = alloca ptr, align 8
  %20 = alloca i64, align 8
  store ptr %0, ptr %8, align 8, !tbaa !43
  store i64 %1, ptr %9, align 8, !tbaa !12
  store ptr %2, ptr %10, align 8, !tbaa !43
  store i64 %3, ptr %11, align 8, !tbaa !12
  store i32 %4, ptr %12, align 4, !tbaa !39
  store i64 %5, ptr %13, align 8, !tbaa !12
  call void @llvm.lifetime.start.p0(i64 8, ptr %14) #8
  call void @llvm.lifetime.start.p0(i64 8, ptr %15) #8
  call void @llvm.lifetime.start.p0(i64 8, ptr %16) #8
  %21 = load i64, ptr %9, align 8, !tbaa !12
  %22 = load i64, ptr %11, align 8, !tbaa !12
  %23 = add i64 %22, 1
  %24 = icmp slt i64 %21, %23
  br i1 %24, label %25, label %26

25:                                               ; preds = %6
  store i64 0, ptr %7, align 8
  store i32 1, ptr %17, align 4
  br label %176

26:                                               ; preds = %6
  %27 = load ptr, ptr %10, align 8, !tbaa !43
  %28 = call ptr @strchr(ptr noundef %27, i32 noundef 46) #29
  %29 = icmp ne ptr %28, null
  br i1 %29, label %30, label %44

30:                                               ; preds = %26
  %31 = load ptr, ptr %8, align 8, !tbaa !43
  %32 = load i64, ptr %9, align 8, !tbaa !12
  %33 = load i64, ptr %11, align 8, !tbaa !12
  %34 = sub i64 %32, %33
  %35 = getelementptr i8, ptr %31, i64 %34
  %36 = load ptr, ptr %10, align 8, !tbaa !43
  %37 = load i64, ptr %11, align 8, !tbaa !12
  %38 = call i32 @strncmp(ptr noundef %35, ptr noundef %36, i64 noundef %37) #29
  %39 = icmp ne i32 %38, 0
  br i1 %39, label %44, label %40

40:                                               ; preds = %30
  %41 = load i64, ptr %9, align 8, !tbaa !12
  %42 = load i64, ptr %11, align 8, !tbaa !12
  %43 = sub i64 %41, %42
  store i64 %43, ptr %15, align 8, !tbaa !12
  br label %99

44:                                               ; preds = %30, %26
  %45 = load ptr, ptr %8, align 8, !tbaa !43
  %46 = load i64, ptr %9, align 8, !tbaa !12
  %47 = getelementptr i8, ptr %45, i64 %46
  store ptr %47, ptr %16, align 8, !tbaa !43
  br label %48

48:                                               ; preds = %65, %44
  %49 = load ptr, ptr %8, align 8, !tbaa !43
  %50 = load ptr, ptr %16, align 8, !tbaa !43
  %51 = icmp ne ptr %49, %50
  br i1 %51, label %52, label %62

52:                                               ; preds = %48
  %53 = load ptr, ptr %16, align 8, !tbaa !43
  %54 = load i8, ptr %53, align 1, !tbaa !47
  %55 = sext i8 %54 to i32
  %56 = icmp ne i32 %55, 46
  br i1 %56, label %57, label %62

57:                                               ; preds = %52
  %58 = load ptr, ptr %16, align 8, !tbaa !43
  %59 = load i8, ptr %58, align 1, !tbaa !47
  %60 = sext i8 %59 to i32
  %61 = icmp ne i32 %60, 47
  br label %62

62:                                               ; preds = %57, %52, %48
  %63 = phi i1 [ false, %52 ], [ false, %48 ], [ %61, %57 ]
  br i1 %63, label %64, label %68

64:                                               ; preds = %62
  br label %65

65:                                               ; preds = %64
  %66 = load ptr, ptr %16, align 8, !tbaa !43
  %67 = getelementptr i8, ptr %66, i32 -1
  store ptr %67, ptr %16, align 8, !tbaa !43
  br label %48, !llvm.loop !229

68:                                               ; preds = %62
  %69 = load ptr, ptr %16, align 8, !tbaa !43
  %70 = load i8, ptr %69, align 1, !tbaa !47
  %71 = sext i8 %70 to i32
  %72 = icmp ne i32 %71, 46
  br i1 %72, label %90, label %73

73:                                               ; preds = %68
  %74 = load ptr, ptr %16, align 8, !tbaa !43
  %75 = load ptr, ptr %8, align 8, !tbaa !43
  %76 = ptrtoint ptr %74 to i64
  %77 = ptrtoint ptr %75 to i64
  %78 = sub i64 %76, %77
  %79 = load i64, ptr %11, align 8, !tbaa !12
  %80 = icmp slt i64 %78, %79
  br i1 %80, label %90, label %81

81:                                               ; preds = %73
  %82 = load ptr, ptr %16, align 8, !tbaa !43
  %83 = load i64, ptr %11, align 8, !tbaa !12
  %84 = sub i64 0, %83
  %85 = getelementptr i8, ptr %82, i64 %84
  %86 = load ptr, ptr %10, align 8, !tbaa !43
  %87 = load i64, ptr %11, align 8, !tbaa !12
  %88 = call i32 @strncmp(ptr noundef %85, ptr noundef %86, i64 noundef %87) #29
  %89 = icmp ne i32 %88, 0
  br i1 %89, label %90, label %91

90:                                               ; preds = %81, %73, %68
  store i64 0, ptr %7, align 8
  store i32 1, ptr %17, align 4
  br label %176

91:                                               ; preds = %81
  %92 = load ptr, ptr %16, align 8, !tbaa !43
  %93 = load ptr, ptr %8, align 8, !tbaa !43
  %94 = ptrtoint ptr %92 to i64
  %95 = ptrtoint ptr %93 to i64
  %96 = sub i64 %94, %95
  %97 = load i64, ptr %11, align 8, !tbaa !12
  %98 = sub i64 %96, %97
  store i64 %98, ptr %15, align 8, !tbaa !12
  br label %99

99:                                               ; preds = %91, %40
  %100 = load i64, ptr %15, align 8, !tbaa !12
  %101 = icmp sgt i64 %100, 0
  br i1 %101, label %102, label %111

102:                                              ; preds = %99
  %103 = load ptr, ptr %8, align 8, !tbaa !43
  %104 = load i64, ptr %15, align 8, !tbaa !12
  %105 = sub i64 %104, 1
  %106 = getelementptr i8, ptr %103, i64 %105
  %107 = load i8, ptr %106, align 1, !tbaa !47
  %108 = sext i8 %107 to i32
  %109 = icmp ne i32 %108, 47
  br i1 %109, label %110, label %111

110:                                              ; preds = %102
  store i64 0, ptr %7, align 8
  store i32 1, ptr %17, align 4
  br label %176

111:                                              ; preds = %102, %99
  %112 = load i32, ptr %12, align 4, !tbaa !39
  %113 = icmp eq i32 %112, 115
  br i1 %113, label %114, label %122

114:                                              ; preds = %111
  %115 = load ptr, ptr %8, align 8, !tbaa !43
  %116 = load i64, ptr %15, align 8, !tbaa !12
  %117 = load i64, ptr %11, align 8, !tbaa !12
  %118 = add i64 %116, %117
  %119 = getelementptr i8, ptr %115, i64 %118
  %120 = call i32 @strcmp(ptr noundef %119, ptr noundef @.str.4) #29
  %121 = icmp eq i32 %120, 0
  br i1 %121, label %135, label %134

122:                                              ; preds = %111
  %123 = load i32, ptr %12, align 4, !tbaa !39
  %124 = icmp eq i32 %123, 114
  br i1 %124, label %125, label %133

125:                                              ; preds = %122
  %126 = load ptr, ptr %8, align 8, !tbaa !43
  %127 = load i64, ptr %15, align 8, !tbaa !12
  %128 = load i64, ptr %11, align 8, !tbaa !12
  %129 = add i64 %127, %128
  %130 = getelementptr i8, ptr %126, i64 %129
  %131 = call i32 @strcmp(ptr noundef %130, ptr noundef @.str.17) #29
  %132 = icmp eq i32 %131, 0
  br i1 %132, label %135, label %134

133:                                              ; preds = %122
  br i1 false, label %134, label %135

134:                                              ; preds = %133, %125, %114
  store i64 0, ptr %7, align 8
  store i32 1, ptr %17, align 4
  br label %176

135:                                              ; preds = %133, %125, %114
  %136 = load i64, ptr %15, align 8, !tbaa !12
  %137 = icmp sgt i64 %136, 0
  br i1 %137, label %138, label %141

138:                                              ; preds = %135
  %139 = load i64, ptr %15, align 8, !tbaa !12
  %140 = add i64 %139, -1
  store i64 %140, ptr %15, align 8, !tbaa !12
  br label %141

141:                                              ; preds = %138, %135
  store i64 0, ptr %14, align 8, !tbaa !12
  br label %142

142:                                              ; preds = %172, %141
  %143 = load i64, ptr %14, align 8, !tbaa !12
  %144 = load i64, ptr %13, align 8, !tbaa !12
  %145 = call i64 @rb_array_len(i64 noundef %144) #29
  %146 = icmp slt i64 %143, %145
  br i1 %146, label %147, label %175

147:                                              ; preds = %142
  call void @llvm.lifetime.start.p0(i64 8, ptr %18) #8
  %148 = load i64, ptr %13, align 8, !tbaa !12
  %149 = load i64, ptr %14, align 8, !tbaa !12
  %150 = call i64 @RARRAY_AREF(i64 noundef %148, i64 noundef %149) #29
  store i64 %150, ptr %18, align 8, !tbaa !12
  call void @llvm.lifetime.start.p0(i64 8, ptr %19) #8
  %151 = call ptr @rb_string_value_ptr(ptr noundef %18)
  store ptr %151, ptr %19, align 8, !tbaa !43
  call void @llvm.lifetime.start.p0(i64 8, ptr %20) #8
  %152 = load i64, ptr %18, align 8, !tbaa !12
  %153 = call i64 @RSTRING_LEN(i64 noundef %152) #29
  store i64 %153, ptr %20, align 8, !tbaa !12
  %154 = load i64, ptr %20, align 8, !tbaa !12
  %155 = load i64, ptr %15, align 8, !tbaa !12
  %156 = icmp ne i64 %154, %155
  br i1 %156, label %157, label %158

157:                                              ; preds = %147
  store i32 7, ptr %17, align 4
  br label %170

158:                                              ; preds = %147
  %159 = load i64, ptr %20, align 8, !tbaa !12
  %160 = icmp ne i64 %159, 0
  br i1 %160, label %161, label %168

161:                                              ; preds = %158
  %162 = load ptr, ptr %8, align 8, !tbaa !43
  %163 = load ptr, ptr %19, align 8, !tbaa !43
  %164 = load i64, ptr %20, align 8, !tbaa !12
  %165 = call i32 @strncmp(ptr noundef %162, ptr noundef %163, i64 noundef %164) #29
  %166 = icmp ne i32 %165, 0
  br i1 %166, label %167, label %168

167:                                              ; preds = %161
  store i32 7, ptr %17, align 4
  br label %170

168:                                              ; preds = %161, %158
  %169 = load i64, ptr %18, align 8, !tbaa !12
  store i64 %169, ptr %7, align 8
  store i32 1, ptr %17, align 4
  br label %170

170:                                              ; preds = %168, %167, %157
  call void @llvm.lifetime.end.p0(i64 8, ptr %20) #8
  call void @llvm.lifetime.end.p0(i64 8, ptr %19) #8
  call void @llvm.lifetime.end.p0(i64 8, ptr %18) #8
  %171 = load i32, ptr %17, align 4
  switch i32 %171, label %176 [
    i32 7, label %172
  ]

172:                                              ; preds = %170
  %173 = load i64, ptr %14, align 8, !tbaa !12
  %174 = add i64 %173, 1
  store i64 %174, ptr %14, align 8, !tbaa !12
  br label %142, !llvm.loop !230

175:                                              ; preds = %142
  store i64 0, ptr %7, align 8
  store i32 1, ptr %17, align 4
  br label %176

176:                                              ; preds = %175, %170, %134, %110, %90, %25
  call void @llvm.lifetime.end.p0(i64 8, ptr %16) #8
  call void @llvm.lifetime.end.p0(i64 8, ptr %15) #8
  call void @llvm.lifetime.end.p0(i64 8, ptr %14) #8
  %177 = load i64, ptr %7, align 8
  ret i64 %177
}