; Function Attrs: nounwind sspstrong uwtable
define internal fastcc i64 @loaded_feature_path(ptr noundef %0, i64 noundef %1, ptr noundef readonly %2, i64 noundef %3, i32 noundef %4, i64 noundef %5) unnamed_addr #0 {
  %7 = alloca i64, align 8
  %8 = add i64 %3, 1
  %9 = icmp slt i64 %1, %8
  br i1 %9, label %.loopexit, label %10

10:                                               ; preds = %6
  %11 = tail call ptr @strchr(ptr noundef nonnull dereferenceable(1) %2, i32 noundef 46) #25
  %.not = icmp eq ptr %11, null
  br i1 %.not, label %16, label %12

12:                                               ; preds = %10
  %13 = sub i64 %1, %3
  %14 = getelementptr i8, ptr %0, i64 %13
  %15 = tail call i32 @strncmp(ptr noundef %14, ptr noundef nonnull %2, i64 noundef %3) #25
  %.not64 = icmp eq i32 %15, 0
  br i1 %.not64, label %34, label %16

16:                                               ; preds = %12, %10
  %17 = getelementptr i8, ptr %0, i64 %1
  %.not6580 = icmp eq i64 %1, 0
  br i1 %.not6580, label %.critedgethread-pre-split, label %.lr.ph

.lr.ph:                                           ; preds = %16, %20
  %.05581 = phi ptr [ %21, %20 ], [ %17, %16 ]
  %18 = load i8, ptr %.05581, align 1, !tbaa !43
  %19 = and i8 %18, -2
  %switch = icmp eq i8 %19, 46
  br i1 %switch, label %.critedge, label %20

20:                                               ; preds = %.lr.ph
  %21 = getelementptr i8, ptr %.05581, i64 -1
  %.not65 = icmp eq ptr %0, %21
  br i1 %.not65, label %.critedgethread-pre-split, label %.lr.ph, !llvm.loop !268

.critedgethread-pre-split:                        ; preds = %20, %16
  %.055.lcssa = phi ptr [ %17, %16 ], [ %0, %20 ]
  %.pr = load i8, ptr %.055.lcssa, align 1, !tbaa !43
  br label %.critedge

.critedge:                                        ; preds = %.lr.ph, %.critedgethread-pre-split
  %.05578 = phi ptr [ %.055.lcssa, %.critedgethread-pre-split ], [ %.05581, %.lr.ph ]
  %22 = phi i8 [ %.pr, %.critedgethread-pre-split ], [ %18, %.lr.ph ]
  %.not68 = icmp eq i8 %22, 46
  br i1 %.not68, label %23, label %.loopexit

23:                                               ; preds = %.critedge
  %24 = ptrtoint ptr %.05578 to i64
  %25 = ptrtoint ptr %0 to i64
  %26 = sub i64 %24, %25
  %27 = icmp slt i64 %26, %3
  br i1 %27, label %.loopexit, label %28

28:                                               ; preds = %23
  %29 = sub i64 0, %3
  %30 = getelementptr i8, ptr %.05578, i64 %29
  %31 = tail call i32 @strncmp(ptr noundef %30, ptr noundef nonnull %2, i64 noundef %3) #25
  %.not69 = icmp eq i32 %31, 0
  br i1 %.not69, label %32, label %.loopexit

32:                                               ; preds = %28
  %33 = sub i64 %26, %3
  br label %34

34:                                               ; preds = %12, %32
  %.056 = phi i64 [ %33, %32 ], [ %13, %12 ]
  %35 = icmp sgt i64 %.056, 0
  br i1 %35, label %36, label %40

36:                                               ; preds = %34
  %37 = getelementptr i8, ptr %0, i64 %.056
  %38 = getelementptr i8, ptr %37, i64 -1
  %39 = load i8, ptr %38, align 1, !tbaa !43
  %.not70 = icmp eq i8 %39, 47
  br i1 %.not70, label %40, label %.loopexit

40:                                               ; preds = %36, %34
  switch i32 %4, label %51 [
    i32 115, label %41
    i32 114, label %46
  ]

41:                                               ; preds = %40
  %42 = getelementptr i8, ptr %0, i64 %.056
  %43 = getelementptr i8, ptr %42, i64 %3
  %44 = tail call i32 @strcmp(ptr noundef nonnull dereferenceable(1) %43, ptr noundef nonnull dereferenceable(4) @.str.4) #25
  %45 = icmp eq i32 %44, 0
  br i1 %45, label %51, label %.loopexit

46:                                               ; preds = %40
  %47 = getelementptr i8, ptr %0, i64 %.056
  %48 = getelementptr i8, ptr %47, i64 %3
  %49 = tail call i32 @strcmp(ptr noundef nonnull dereferenceable(1) %48, ptr noundef nonnull dereferenceable(4) @.str.17) #25
  %50 = icmp eq i32 %49, 0
  br i1 %50, label %51, label %.loopexit

51:                                               ; preds = %40, %46, %41
  %52 = sext i1 %35 to i64
  %spec.select = add nsw i64 %.056, %52
  %53 = inttoptr i64 %5 to ptr
  %54 = getelementptr inbounds nuw i8, ptr %53, i64 16
  %55 = getelementptr inbounds nuw i8, ptr %53, i64 32
  %.not72 = icmp eq i64 %spec.select, 0
  br label %56

56:                                               ; preds = %77, %51
  %.053 = phi i64 [ 0, %51 ], [ %78, %77 ]
  %57 = load i64, ptr %53, align 8, !tbaa !44
  %58 = and i64 %57, 8192
  %.not.i = icmp eq i64 %58, 0
  br i1 %.not.i, label %rb_array_len.exit, label %rb_array_len.exit.thread

rb_array_len.exit:                                ; preds = %56
  %59 = load i64, ptr %54, align 8, !tbaa !43
  %60 = icmp slt i64 %.053, %59
  br i1 %60, label %64, label %.loopexit

rb_array_len.exit.thread:                         ; preds = %56
  %61 = lshr i64 %57, 15
  %62 = and i64 %61, 127
  %63 = icmp samesign ult i64 %.053, %62
  br i1 %63, label %.thread, label %.loopexit

.thread:                                          ; preds = %rb_array_len.exit.thread
  call void @llvm.lifetime.start.p0(i64 8, ptr nonnull %7) #7
  br label %RARRAY_AREF.exit

64:                                               ; preds = %rb_array_len.exit
  call void @llvm.lifetime.start.p0(i64 8, ptr nonnull %7) #7
  %65 = load ptr, ptr %55, align 8, !tbaa !43
  br label %RARRAY_AREF.exit

RARRAY_AREF.exit:                                 ; preds = %.thread, %64
  %.0.i.i = phi ptr [ %65, %64 ], [ %54, %.thread ]
  %66 = getelementptr i64, ptr %.0.i.i, i64 %.053
  %67 = load i64, ptr %66, align 8, !tbaa !42
  store i64 %67, ptr %7, align 8, !tbaa !42
  %68 = call ptr @rb_string_value_ptr(ptr noundef nonnull %7) #7
  %69 = load i64, ptr %7, align 8, !tbaa !42
  %70 = inttoptr i64 %69 to ptr
  %71 = getelementptr inbounds nuw i8, ptr %70, i64 16
  %72 = load i64, ptr %71, align 8, !tbaa !170
  %.not71 = icmp eq i64 %72, %spec.select
  br i1 %.not71, label %73, label %77

73:                                               ; preds = %RARRAY_AREF.exit
  br i1 %.not72, label %76, label %74

74:                                               ; preds = %73
  %75 = call i32 @strncmp(ptr noundef %0, ptr noundef %68, i64 noundef %spec.select) #25
  %.not73 = icmp eq i32 %75, 0
  br i1 %.not73, label %76, label %77

76:                                               ; preds = %73, %74
  call void @llvm.lifetime.end.p0(i64 8, ptr nonnull %7) #7
  br label %.loopexit

77:                                               ; preds = %RARRAY_AREF.exit, %74
  call void @llvm.lifetime.end.p0(i64 8, ptr nonnull %7) #7
  %78 = add nuw nsw i64 %.053, 1
  br label %56, !llvm.loop !269

.loopexit:                                        ; preds = %rb_array_len.exit, %rb_array_len.exit.thread, %76, %41, %46, %36, %.critedge, %23, %28, %6
  %.0 = phi i64 [ %69, %76 ], [ 0, %6 ], [ 0, %28 ], [ 0, %23 ], [ 0, %.critedge ], [ 0, %36 ], [ 0, %46 ], [ 0, %41 ], [ 0, %rb_array_len.exit.thread ], [ 0, %rb_array_len.exit ]
  ret i64 %.0
}